target datalayout = "e-m:e-p270:32:32-p271:32:32-p272:64:64-i64:64-i128:128-f80:128-n8:16:32:64-S128"
target triple = "x86_64-pc-linux-gnu"

%struct.AVProbeData = type { ptr, ptr, i32, ptr }

@mxf_header_partition_pack_key = internal constant [14 x i8] c"\06\0E+4\02\05\01\01\0D\01\02\01\01\02", align 1

; Function Attrs: nounwind uwtable
define internal i32 @mxf_probe(ptr noundef %0) #0 {
  %2 = alloca i32, align 4
  %3 = alloca ptr, align 8
  %4 = alloca ptr, align 8
  %5 = alloca ptr, align 8
  %6 = alloca i32, align 4
  store ptr %0, ptr %3, align 8, !tbaa !4
  call void @llvm.lifetime.start.p0(i64 8, ptr %4) #13
  %7 = load ptr, ptr %3, align 8, !tbaa !4
  %8 = getelementptr inbounds nuw %struct.AVProbeData, ptr %7, i32 0, i32 1
  %9 = load ptr, ptr %8, align 8, !tbaa !9
  store ptr %9, ptr %4, align 8, !tbaa !13
  call void @llvm.lifetime.start.p0(i64 8, ptr %5) #13
  %10 = load ptr, ptr %3, align 8, !tbaa !4
  %11 = getelementptr inbounds nuw %struct.AVProbeData, ptr %10, i32 0, i32 1
  %12 = load ptr, ptr %11, align 8, !tbaa !9
  %13 = load ptr, ptr %3, align 8, !tbaa !4
  %14 = getelementptr inbounds nuw %struct.AVProbeData, ptr %13, i32 0, i32 2
  %15 = load i32, ptr %14, align 8, !tbaa !14
  %16 = sext i32 %15 to i64
  %17 = icmp ugt i64 %16, 65551
  br i1 %17, label %18, label %19

18:                                               ; preds = %1
  br label %24

19:                                               ; preds = %1
  %20 = load ptr, ptr %3, align 8, !tbaa !4
  %21 = getelementptr inbounds nuw %struct.AVProbeData, ptr %20, i32 0, i32 2
  %22 = load i32, ptr %21, align 8, !tbaa !14
  %23 = sext i32 %22 to i64
  br label %24

24:                                               ; preds = %19, %18
  %25 = phi i64 [ 65551, %18 ], [ %23, %19 ]
  %26 = getelementptr inbounds nuw i8, ptr %12, i64 %25
  store ptr %26, ptr %5, align 8, !tbaa !13
  %27 = load ptr, ptr %3, align 8, !tbaa !4
  %28 = getelementptr inbounds nuw %struct.AVProbeData, ptr %27, i32 0, i32 2
  %29 = load i32, ptr %28, align 8, !tbaa !14
  %30 = sext i32 %29 to i64
  %31 = icmp ult i64 %30, 14
  br i1 %31, label %32, label %33

32:                                               ; preds = %24
  store i32 0, ptr %2, align 4
  store i32 1, ptr %6, align 4
  br label %88

33:                                               ; preds = %24
  %34 = load ptr, ptr %5, align 8, !tbaa !13
  %35 = getelementptr inbounds i8, ptr %34, i64 -14
  store ptr %35, ptr %5, align 8, !tbaa !13
  br label %36

36:                                               ; preds = %86, %33
  %37 = load ptr, ptr %4, align 8, !tbaa !13
  %38 = load ptr, ptr %5, align 8, !tbaa !13
  %39 = icmp ult ptr %37, %38
  br i1 %39, label %40, label %87

40:                                               ; preds = %36
  %41 = load ptr, ptr %4, align 8, !tbaa !13
  %42 = getelementptr inbounds i8, ptr %41, i64 13
  %43 = load i8, ptr %42, align 1, !tbaa !15
  %44 = zext i8 %43 to i32
  %45 = sub nsw i32 %44, 1
  %46 = and i32 %45, 242
  %47 = icmp ne i32 %46, 0
  br i1 %47, label %83, label %48

48:                                               ; preds = %40
  %49 = load ptr, ptr %4, align 8, !tbaa !13
  %50 = load i32, ptr %49, align 1, !tbaa !15
  %51 = load i32, ptr @mxf_header_partition_pack_key, align 1, !tbaa !15
  %52 = icmp eq i32 %50, %51
  br i1 %52, label %53, label %80

53:                                               ; preds = %48
  %54 = load ptr, ptr %4, align 8, !tbaa !13
  %55 = getelementptr inbounds i8, ptr %54, i64 4
  %56 = load i32, ptr %55, align 1, !tbaa !15
  %57 = load i32, ptr getelementptr inbounds (i8, ptr @mxf_header_partition_pack_key, i64 4), align 1, !tbaa !15
  %58 = icmp eq i32 %56, %57
  br i1 %58, label %59, label %80

59:                                               ; preds = %53
  %60 = load ptr, ptr %4, align 8, !tbaa !13
  %61 = getelementptr inbounds i8, ptr %60, i64 8
  %62 = load i32, ptr %61, align 1, !tbaa !15
  %63 = load i32, ptr getelementptr inbounds (i8, ptr @mxf_header_partition_pack_key, i64 8), align 1, !tbaa !15
  %64 = icmp eq i32 %62, %63
  br i1 %64, label %65, label %80

65:                                               ; preds = %59
  %66 = load ptr, ptr %4, align 8, !tbaa !13
  %67 = getelementptr inbounds i8, ptr %66, i64 12
  %68 = load i16, ptr %67, align 1, !tbaa !15
  %69 = zext i16 %68 to i32
  %70 = load i16, ptr getelementptr inbounds (i8, ptr @mxf_header_partition_pack_key, i64 12), align 1, !tbaa !15
  %71 = zext i16 %70 to i32
  %72 = icmp eq i32 %69, %71
  br i1 %72, label %73, label %80

73:                                               ; preds = %65
  %74 = load ptr, ptr %4, align 8, !tbaa !13
  %75 = load ptr, ptr %3, align 8, !tbaa !4
  %76 = getelementptr inbounds nuw %struct.AVProbeData, ptr %75, i32 0, i32 1
  %77 = load ptr, ptr %76, align 8, !tbaa !9
  %78 = icmp eq ptr %74, %77
  %79 = select i1 %78, i32 100, i32 99
  store i32 %79, ptr %2, align 4
  store i32 1, ptr %6, align 4
  br label %88

80:                                               ; preds = %65, %59, %53, %48
  %81 = load ptr, ptr %4, align 8, !tbaa !13
  %82 = getelementptr inbounds nuw i8, ptr %81, i32 1
  store ptr %82, ptr %4, align 8, !tbaa !13
  br label %86

83:                                               ; preds = %40
  %84 = load ptr, ptr %4, align 8, !tbaa !13
  %85 = getelementptr inbounds i8, ptr %84, i64 10
  store ptr %85, ptr %4, align 8, !tbaa !13
  br label %86

86:                                               ; preds = %83, %80
  br label %36, !llvm.loop !16

87:                                               ; preds = %36
  store i32 0, ptr %2, align 4
  store i32 1, ptr %6, align 4
  br label %88

88:                                               ; preds = %87, %73, %32
  call void @llvm.lifetime.end.p0(i64 8, ptr %5) #13
  call void @llvm.lifetime.end.p0(i64 8, ptr %4) #13
  %89 = load i32, ptr %2, align 4
  ret i32 %89
}