; Function Attrs: nofree norecurse nosync nounwind memory(read, inaccessiblemem: none) uwtable
define internal range(i32 0, 101) i32 @mxf_probe(ptr noundef readonly captures(none) %0) #0 {
  %2 = getelementptr inbounds nuw i8, ptr %0, i64 8
  %3 = load ptr, ptr %2, align 8, !tbaa !4
  %4 = getelementptr inbounds nuw i8, ptr %0, i64 16
  %5 = load i32, ptr %4, align 8, !tbaa !11
  %6 = icmp ult i32 %5, 14
  br i1 %6, label %.loopexit, label %7

7:                                                ; preds = %1
  %narrow = tail call i32 @llvm.umin.i32(i32 %5, i32 65551)
  %spec.select = zext nneg i32 %narrow to i64
  %8 = getelementptr inbounds nuw i8, ptr %3, i64 %spec.select
  %9 = getelementptr inbounds i8, ptr %8, i64 -14
  %10 = icmp ult ptr %3, %9
  br i1 %10, label %.lr.ph, label %.loopexit

.lr.ph:                                           ; preds = %7, %33
  %.020 = phi ptr [ %34, %33 ], [ %3, %7 ]
  %11 = getelementptr inbounds nuw i8, ptr %.020, i64 13
  %12 = load i8, ptr %11, align 1, !tbaa !12
  %13 = add i8 %12, -1
  %14 = and i8 %13, -14
  %.not = icmp eq i8 %14, 0
  br i1 %.not, label %15, label %33

15:                                               ; preds = %.lr.ph
  %16 = load i32, ptr %.020, align 1, !tbaa !12
  %17 = icmp eq i32 %16, 875236870
  br i1 %17, label %18, label %33

18:                                               ; preds = %15
  %19 = getelementptr inbounds nuw i8, ptr %.020, i64 4
  %20 = load i32, ptr %19, align 1, !tbaa !12
  %21 = icmp eq i32 %20, 16844034
  br i1 %21, label %22, label %33

22:                                               ; preds = %18
  %23 = getelementptr inbounds nuw i8, ptr %.020, i64 8
  %24 = load i32, ptr %23, align 1, !tbaa !12
  %25 = icmp eq i32 %24, 16908557
  br i1 %25, label %26, label %33

26:                                               ; preds = %22
  %27 = getelementptr inbounds nuw i8, ptr %.020, i64 12
  %28 = load i16, ptr %27, align 1, !tbaa !12
  %29 = icmp eq i16 %28, 513
  br i1 %29, label %30, label %33

30:                                               ; preds = %26
  %31 = icmp eq ptr %.020, %3
  %32 = select i1 %31, i32 100, i32 99
  br label %.loopexit

33:                                               ; preds = %.lr.ph, %15, %18, %22, %26
  %.sink = phi i64 [ 1, %26 ], [ 1, %22 ], [ 1, %18 ], [ 1, %15 ], [ 10, %.lr.ph ]
  %34 = getelementptr inbounds nuw i8, ptr %.020, i64 %.sink
  %35 = icmp ult ptr %34, %9
  br i1 %35, label %.lr.ph, label %.loopexit, !llvm.loop !13

.loopexit:                                        ; preds = %33, %7, %1, %30
  %.017 = phi i32 [ %32, %30 ], [ 0, %1 ], [ 0, %7 ], [ 0, %33 ]
  ret i32 %.017
}